target datalayout = "e-m:e-p270:32:32-p271:32:32-p272:64:64-i64:64-i128:128-f80:128-n8:16:32:64-S128"
target triple = "x86_64-pc-linux-gnu"

; Function Attrs: nounwind uwtable
define void @av_cast5_crypt2(ptr noundef %0, ptr noundef %1, ptr noundef %2, i32 noundef %3, ptr noundef %4, i32 noundef %5) #0 {
  %7 = alloca ptr, align 8
  %8 = alloca ptr, align 8
  %9 = alloca ptr, align 8
  %10 = alloca i32, align 4
  %11 = alloca ptr, align 8
  %12 = alloca i32, align 4
  %13 = alloca i32, align 4
  store ptr %0, ptr %7, align 8, !tbaa !4
  store ptr %1, ptr %8, align 8, !tbaa !9
  store ptr %2, ptr %9, align 8, !tbaa !9
  store i32 %3, ptr %10, align 4, !tbaa !11
  store ptr %4, ptr %11, align 8, !tbaa !9
  store i32 %5, ptr %12, align 4, !tbaa !11
  call void @llvm.lifetime.start.p0(i64 4, ptr %13) #7
  br label %14

14:                                               ; preds = %66, %6
  %15 = load i32, ptr %10, align 4, !tbaa !11
  %16 = add nsw i32 %15, -1
  store i32 %16, ptr %10, align 4, !tbaa !11
  %17 = icmp ne i32 %15, 0
  br i1 %17, label %18, label %71

18:                                               ; preds = %14
  %19 = load i32, ptr %12, align 4, !tbaa !11
  %20 = icmp ne i32 %19, 0
  br i1 %20, label %21, label %26

21:                                               ; preds = %18
  %22 = load ptr, ptr %7, align 8, !tbaa !4
  %23 = load ptr, ptr %8, align 8, !tbaa !9
  %24 = load ptr, ptr %9, align 8, !tbaa !9
  %25 = load ptr, ptr %11, align 8, !tbaa !9
  call void @decipher(ptr noundef %22, ptr noundef %23, ptr noundef %24, ptr noundef %25)
  br label %66

26:                                               ; preds = %18
  %27 = load ptr, ptr %11, align 8, !tbaa !9
  %28 = icmp ne ptr %27, null
  br i1 %28, label %29, label %61

29:                                               ; preds = %26
  store i32 0, ptr %13, align 4, !tbaa !11
  br label %30

30:                                               ; preds = %52, %29
  %31 = load i32, ptr %13, align 4, !tbaa !11
  %32 = icmp slt i32 %31, 8
  br i1 %32, label %33, label %55

33:                                               ; preds = %30
  %34 = load ptr, ptr %9, align 8, !tbaa !9
  %35 = load i32, ptr %13, align 4, !tbaa !11
  %36 = sext i32 %35 to i64
  %37 = getelementptr inbounds i8, ptr %34, i64 %36
  %38 = load i8, ptr %37, align 1, !tbaa !15
  %39 = zext i8 %38 to i32
  %40 = load ptr, ptr %11, align 8, !tbaa !9
  %41 = load i32, ptr %13, align 4, !tbaa !11
  %42 = sext i32 %41 to i64
  %43 = getelementptr inbounds i8, ptr %40, i64 %42
  %44 = load i8, ptr %43, align 1, !tbaa !15
  %45 = zext i8 %44 to i32
  %46 = xor i32 %39, %45
  %47 = trunc i32 %46 to i8
  %48 = load ptr, ptr %8, align 8, !tbaa !9
  %49 = load i32, ptr %13, align 4, !tbaa !11
  %50 = sext i32 %49 to i64
  %51 = getelementptr inbounds i8, ptr %48, i64 %50
  store i8 %47, ptr %51, align 1, !tbaa !15
  br label %52

52:                                               ; preds = %33
  %53 = load i32, ptr %13, align 4, !tbaa !11
  %54 = add nsw i32 %53, 1
  store i32 %54, ptr %13, align 4, !tbaa !11
  br label %30, !llvm.loop !21

55:                                               ; preds = %30
  %56 = load ptr, ptr %7, align 8, !tbaa !4
  %57 = load ptr, ptr %8, align 8, !tbaa !9
  %58 = load ptr, ptr %8, align 8, !tbaa !9
  call void @encipher(ptr noundef %56, ptr noundef %57, ptr noundef %58)
  %59 = load ptr, ptr %11, align 8, !tbaa !9
  %60 = load ptr, ptr %8, align 8, !tbaa !9
  call void @llvm.memcpy.p0.p0.i64(ptr align 1 %59, ptr align 1 %60, i64 8, i1 false)
  br label %65

61:                                               ; preds = %26
  %62 = load ptr, ptr %7, align 8, !tbaa !4
  %63 = load ptr, ptr %8, align 8, !tbaa !9
  %64 = load ptr, ptr %9, align 8, !tbaa !9
  call void @encipher(ptr noundef %62, ptr noundef %63, ptr noundef %64)
  br label %65

65:                                               ; preds = %61, %55
  br label %66

66:                                               ; preds = %65, %21
  %67 = load ptr, ptr %9, align 8, !tbaa !9
  %68 = getelementptr inbounds i8, ptr %67, i64 8
  store ptr %68, ptr %9, align 8, !tbaa !9
  %69 = load ptr, ptr %8, align 8, !tbaa !9
  %70 = getelementptr inbounds i8, ptr %69, i64 8
  store ptr %70, ptr %8, align 8, !tbaa !9
  br label %14, !llvm.loop !22

71:                                               ; preds = %14
  call void @llvm.lifetime.end.p0(i64 4, ptr %13) #7
  ret void
}